; Function Attrs: nounwind uwtable
define hidden void @zim_XMLReader_moveToNextAttribute(ptr nocapture noundef readonly %0, ptr nocapture noundef writeonly %1) #0 {
  %3 = getelementptr inbounds i8, ptr %0, i64 44
  %4 = load i32, ptr %3, align 4
  %.not.i = icmp eq i32 %4, 0
  br i1 %.not.i, label %.critedge.i, label %5

5:                                                ; preds = %2
  tail call void @zend_wrong_parameters_none_error() #11
  %6 = load ptr, ptr getelementptr inbounds (%struct._zend_executor_globals, ptr @executor_globals, i64 0, i32 50), align 8
  %7 = icmp ne ptr %6, null
  tail call void @llvm.assume(i1 %7)
  br label %php_xmlreader_no_arg.exit

.critedge.i:                                      ; preds = %2
  %8 = getelementptr inbounds i8, ptr %0, i64 32
  %9 = load ptr, ptr %8, align 8
  %10 = getelementptr inbounds i8, ptr %9, i64 -32
  %11 = load ptr, ptr %10, align 8
  %.not8.i = icmp eq ptr %11, null
  br i1 %.not8.i, label %17, label %12

12:                                               ; preds = %.critedge.i
  %13 = tail call i32 @xmlTextReaderMoveToNextAttribute(ptr noundef nonnull %11) #11, !callees !6
  %14 = icmp eq i32 %13, 1
  br i1 %14, label %15, label %17

15:                                               ; preds = %12
  %16 = getelementptr inbounds i8, ptr %1, i64 8
  store i32 3, ptr %16, align 8
  br label %php_xmlreader_no_arg.exit

17:                                               ; preds = %12, %.critedge.i
  %18 = getelementptr inbounds i8, ptr %1, i64 8
  store i32 2, ptr %18, align 8
  br label %php_xmlreader_no_arg.exit

php_xmlreader_no_arg.exit:                        ; preds = %5, %15, %17
  ret void
}